target datalayout = "e-m:e-p270:32:32-p271:32:32-p272:64:64-i64:64-i128:128-f80:128-n8:16:32:64-S128"
target triple = "x86_64-pc-linux-gnu"

%"class.std::basic_string_view" = type { i64, ptr }
%"struct.toml::v3::impl::formatter_constants" = type { i64, i64, %"class.std::basic_string_view", %"class.std::basic_string_view", %"class.std::basic_string_view", %"class.std::basic_string_view", %"class.std::basic_string_view" }
%"struct.toml::v3::impl::formatter_config" = type { i64, %"class.std::basic_string_view" }
%"class.toml::v3::impl::formatter" = type <{ ptr, ptr, %"struct.toml::v3::impl::formatter_config", i64, i64, ptr, i32, i8, [3 x i8] }>

; Function Attrs: mustprogress nounwind uwtable
define linkonce_odr noundef ptr @_ZNKSt17basic_string_viewIcSt11char_traitsIcEE3endEv(ptr noundef nonnull align 8 dereferenceable(16) %0) #2 comdat align 2 {
  %2 = alloca ptr, align 8
  store ptr %0, ptr %2, align 8, !tbaa !12
  %3 = load ptr, ptr %2, align 8
  %4 = getelementptr inbounds nuw %"class.std::basic_string_view", ptr %3, i32 0, i32 1
  %5 = load ptr, ptr %4, align 8, !tbaa !14
  %6 = getelementptr inbounds nuw %"class.std::basic_string_view", ptr %3, i32 0, i32 0
  %7 = load i64, ptr %6, align 8, !tbaa !16
  %8 = getelementptr inbounds nuw i8, ptr %5, i64 %7
  ret ptr %8
}

; Function Attrs: mustprogress nounwind uwtable
define linkonce_odr noundef ptr @_ZNKSt17basic_string_viewIcSt11char_traitsIcEE5beginEv(ptr noundef nonnull align 8 dereferenceable(16) %0) #2 comdat align 2 {
  %2 = alloca ptr, align 8
  store ptr %0, ptr %2, align 8, !tbaa !12
  %3 = load ptr, ptr %2, align 8
  %4 = getelementptr inbounds nuw %"class.std::basic_string_view", ptr %3, i32 0, i32 1
  %5 = load ptr, ptr %4, align 8, !tbaa !14
  ret ptr %5
}

; Function Attrs: alwaysinline mustprogress nounwind willreturn memory(none) uwtable
define linkonce_odr noundef i64 @_ZN4toml2v3anENS0_12format_flagsES1_(i64 noundef %0, i64 noundef %1) #23 comdat {
  %3 = alloca i64, align 8
  %4 = alloca i64, align 8
  store i64 %0, ptr %3, align 8, !tbaa !118
  store i64 %1, ptr %4, align 8, !tbaa !118
  %5 = load i64, ptr %3, align 8, !tbaa !118
  %6 = load i64, ptr %4, align 8, !tbaa !118
  %7 = and i64 %5, %6
  ret i64 %7
}

; Function Attrs: alwaysinline mustprogress nounwind willreturn memory(none) uwtable
define linkonce_odr noundef i64 @_ZN4toml2v3coENS0_12format_flagsE(i64 noundef %0) #23 comdat {
  %2 = alloca i64, align 8
  store i64 %0, ptr %2, align 8, !tbaa !118
  %3 = load i64, ptr %2, align 8, !tbaa !118
  %4 = xor i64 %3, -1
  ret i64 %4
}

; Function Attrs: alwaysinline mustprogress nounwind willreturn memory(none) uwtable
define linkonce_odr noundef i64 @_ZN4toml2v3orENS0_12format_flagsES1_(i64 noundef %0, i64 noundef %1) #23 comdat {
  %3 = alloca i64, align 8
  %4 = alloca i64, align 8
  store i64 %0, ptr %3, align 8, !tbaa !118
  store i64 %1, ptr %4, align 8, !tbaa !118
  %5 = load i64, ptr %3, align 8, !tbaa !118
  %6 = load i64, ptr %4, align 8, !tbaa !118
  %7 = or i64 %5, %6
  ret i64 %7
}

; Function Attrs: mustprogress nounwind uwtable
define void @_ZN4toml2v34impl9formatterC2EPKNS0_4nodeEPKNS0_5tableERKNS1_19formatter_constantsERKNS1_16formatter_configE(ptr noundef nonnull align 8 dereferenceable(69) %0, ptr noundef %1, ptr noundef %2, ptr noundef nonnull align 8 dereferenceable(96) %3, ptr noundef nonnull align 8 dereferenceable(24) %4) unnamed_addr #2 align 2 {
  %6 = alloca ptr, align 8
  %7 = alloca ptr, align 8
  %8 = alloca ptr, align 8
  %9 = alloca ptr, align 8
  %10 = alloca ptr, align 8
  %11 = alloca ptr, align 8
  %12 = alloca ptr, align 8
  %13 = alloca ptr, align 8
  %14 = alloca i8, align 1
  store ptr %0, ptr %6, align 8, !tbaa !374
  store ptr %1, ptr %7, align 8, !tbaa !116
  store ptr %2, ptr %8, align 8, !tbaa !132
  store ptr %3, ptr %9, align 8, !tbaa !376
  store ptr %4, ptr %10, align 8, !tbaa !377
  %15 = load ptr, ptr %6, align 8
  %16 = getelementptr inbounds nuw %"class.toml::v3::impl::formatter", ptr %15, i32 0, i32 0
  %17 = load ptr, ptr %8, align 8, !tbaa !132
  %18 = icmp ne ptr %17, null
  br i1 %18, label %19, label %21

19:                                               ; preds = %5
  %20 = load ptr, ptr %8, align 8, !tbaa !132
  br label %23

21:                                               ; preds = %5
  %22 = load ptr, ptr %7, align 8, !tbaa !116
  br label %23

23:                                               ; preds = %21, %19
  %24 = phi ptr [ %20, %19 ], [ %22, %21 ]
  store ptr %24, ptr %16, align 8, !tbaa !379
  %25 = getelementptr inbounds nuw %"class.toml::v3::impl::formatter", ptr %15, i32 0, i32 1
  %26 = load ptr, ptr %9, align 8, !tbaa !376
  store ptr %26, ptr %25, align 8, !tbaa !380
  %27 = getelementptr inbounds nuw %"class.toml::v3::impl::formatter", ptr %15, i32 0, i32 2
  %28 = load ptr, ptr %10, align 8, !tbaa !377
  call void @llvm.memcpy.p0.p0.i64(ptr align 8 %27, ptr align 8 %28, i64 24, i1 false), !tbaa.struct !381
  %29 = getelementptr inbounds nuw %"class.toml::v3::impl::formatter", ptr %15, i32 0, i32 0
  %30 = load ptr, ptr %29, align 8, !tbaa !379
  %31 = icmp ne ptr %30, null
  call void @llvm.assume(i1 %31)
  %32 = getelementptr inbounds nuw %"class.toml::v3::impl::formatter", ptr %15, i32 0, i32 2
  %33 = getelementptr inbounds nuw %"struct.toml::v3::impl::formatter_config", ptr %32, i32 0, i32 0
  %34 = load i64, ptr %33, align 8, !tbaa !382
  %35 = getelementptr inbounds nuw %"class.toml::v3::impl::formatter", ptr %15, i32 0, i32 1
  %36 = load ptr, ptr %35, align 8, !tbaa !380
  %37 = getelementptr inbounds nuw %"struct.toml::v3::impl::formatter_constants", ptr %36, i32 0, i32 0
  %38 = load i64, ptr %37, align 8, !tbaa !383
  %39 = call noundef i64 @_ZN4toml2v3orENS0_12format_flagsES1_(i64 noundef %34, i64 noundef %38) #38
  %40 = getelementptr inbounds nuw %"class.toml::v3::impl::formatter", ptr %15, i32 0, i32 1
  %41 = load ptr, ptr %40, align 8, !tbaa !380
  %42 = getelementptr inbounds nuw %"struct.toml::v3::impl::formatter_constants", ptr %41, i32 0, i32 1
  %43 = load i64, ptr %42, align 8, !tbaa !385
  %44 = call noundef i64 @_ZN4toml2v3coENS0_12format_flagsE(i64 noundef %43) #38
  %45 = call noundef i64 @_ZN4toml2v3anENS0_12format_flagsES1_(i64 noundef %39, i64 noundef %44) #38
  %46 = getelementptr inbounds nuw %"class.toml::v3::impl::formatter", ptr %15, i32 0, i32 2
  %47 = getelementptr inbounds nuw %"struct.toml::v3::impl::formatter_config", ptr %46, i32 0, i32 0
  store i64 %45, ptr %47, align 8, !tbaa !382
  %48 = getelementptr inbounds nuw %"class.toml::v3::impl::formatter", ptr %15, i32 0, i32 3
  store i64 0, ptr %48, align 8, !tbaa !386
  call void @llvm.lifetime.start.p0(i64 8, ptr %11) #36
  %49 = getelementptr inbounds nuw %"class.toml::v3::impl::formatter", ptr %15, i32 0, i32 2
  %50 = getelementptr inbounds nuw %"struct.toml::v3::impl::formatter_config", ptr %49, i32 0, i32 1
  store ptr %50, ptr %11, align 8, !tbaa !12
  call void @llvm.lifetime.start.p0(i64 8, ptr %12) #36
  %51 = load ptr, ptr %11, align 8, !tbaa !12
  %52 = call noundef ptr @_ZNKSt17basic_string_viewIcSt11char_traitsIcEE5beginEv(ptr noundef nonnull align 8 dereferenceable(16) %51) #36
  store ptr %52, ptr %12, align 8, !tbaa !8
  call void @llvm.lifetime.start.p0(i64 8, ptr %13) #36
  %53 = load ptr, ptr %11, align 8, !tbaa !12
  %54 = call noundef ptr @_ZNKSt17basic_string_viewIcSt11char_traitsIcEE3endEv(ptr noundef nonnull align 8 dereferenceable(16) %53) #36
  store ptr %54, ptr %13, align 8, !tbaa !8
  br label %55

55:                                               ; preds = %71, %23
  %56 = load ptr, ptr %12, align 8, !tbaa !8
  %57 = load ptr, ptr %13, align 8, !tbaa !8
  %58 = icmp ne ptr %56, %57
  br i1 %58, label %60, label %59

59:                                               ; preds = %55
  call void @llvm.lifetime.end.p0(i64 8, ptr %13) #36
  call void @llvm.lifetime.end.p0(i64 8, ptr %12) #36
  call void @llvm.lifetime.end.p0(i64 8, ptr %11) #36
  br label %74

60:                                               ; preds = %55
  call void @llvm.lifetime.start.p0(i64 1, ptr %14) #36
  %61 = load ptr, ptr %12, align 8, !tbaa !8
  %62 = load i8, ptr %61, align 1, !tbaa !22
  store i8 %62, ptr %14, align 1, !tbaa !22
  %63 = load i8, ptr %14, align 1, !tbaa !22
  %64 = sext i8 %63 to i32
  %65 = icmp eq i32 %64, 9
  %66 = select i1 %65, i32 4, i32 1
  %67 = zext i32 %66 to i64
  %68 = getelementptr inbounds nuw %"class.toml::v3::impl::formatter", ptr %15, i32 0, i32 3
  %69 = load i64, ptr %68, align 8, !tbaa !386
  %70 = add i64 %69, %67
  store i64 %70, ptr %68, align 8, !tbaa !386
  call void @llvm.lifetime.end.p0(i64 1, ptr %14) #36
  br label %71

71:                                               ; preds = %60
  %72 = load ptr, ptr %12, align 8, !tbaa !8
  %73 = getelementptr inbounds nuw i8, ptr %72, i32 1
  store ptr %73, ptr %12, align 8, !tbaa !8
  br label %55

74:                                               ; preds = %59
  %75 = getelementptr inbounds nuw %"class.toml::v3::impl::formatter", ptr %15, i32 0, i32 2
  %76 = getelementptr inbounds nuw %"struct.toml::v3::impl::formatter_config", ptr %75, i32 0, i32 0
  %77 = load i64, ptr %76, align 8, !tbaa !382
  %78 = call noundef i64 @_ZN4toml2v3orENS0_12format_flagsES1_(i64 noundef 64, i64 noundef 128) #38
  %79 = call noundef i64 @_ZN4toml2v3orENS0_12format_flagsES1_(i64 noundef %78, i64 noundef 256) #38
  %80 = call noundef i64 @_ZN4toml2v3anENS0_12format_flagsES1_(i64 noundef %77, i64 noundef %79) #38
  %81 = getelementptr inbounds nuw %"class.toml::v3::impl::formatter", ptr %15, i32 0, i32 4
  store i64 %80, ptr %81, align 8, !tbaa !387
  ret void
}