; Function Attrs: mustprogress nofree norecurse nosync nounwind memory(read, argmem: readwrite, inaccessiblemem: write) uwtable
define void @_ZN4toml2v34impl9formatterC2EPKNS0_4nodeEPKNS0_5tableERKNS1_19formatter_constantsERKNS1_16formatter_configE(ptr noundef nonnull align 8 captures(none) dereferenceable(69) initializes((0, 48)) %0, ptr noundef %1, ptr noundef %2, ptr noundef nonnull align 8 dereferenceable(96) %3, ptr noundef nonnull readonly align 8 captures(none) dereferenceable(24) %4) unnamed_addr #26 align 2 {
  %.not = icmp eq ptr %2, null
  %6 = select i1 %.not, ptr %1, ptr %2
  store ptr %6, ptr %0, align 8, !tbaa !105
  %7 = getelementptr inbounds nuw i8, ptr %0, i64 8
  store ptr %3, ptr %7, align 8, !tbaa !113
  %8 = getelementptr inbounds nuw i8, ptr %0, i64 16
  tail call void @llvm.memcpy.p0.p0.i64(ptr noundef nonnull align 8 dereferenceable(24) %8, ptr noundef nonnull align 8 dereferenceable(24) %4, i64 24, i1 false), !tbaa.struct !483
  %9 = icmp ne ptr %6, null
  tail call void @llvm.assume(i1 %9)
  %10 = load i64, ptr %8, align 8, !tbaa !116
  %11 = load i64, ptr %3, align 8, !tbaa !485
  %12 = or i64 %11, %10
  %13 = getelementptr inbounds nuw i8, ptr %3, i64 8
  %14 = load i64, ptr %13, align 8, !tbaa !487
  %15 = xor i64 %14, -1
  %16 = and i64 %12, %15
  store i64 %16, ptr %8, align 8, !tbaa !116
  %17 = getelementptr inbounds nuw i8, ptr %0, i64 40
  store i64 0, ptr %17, align 8, !tbaa !117
  %18 = getelementptr inbounds nuw i8, ptr %0, i64 24
  %19 = getelementptr inbounds nuw i8, ptr %0, i64 32
  %20 = load ptr, ptr %19, align 8, !tbaa !488
  %21 = load i64, ptr %18, align 8, !tbaa !489
  %22 = getelementptr inbounds nuw i8, ptr %20, i64 %21
  %.not1213 = icmp samesign eq i64 %21, 0
  br i1 %.not1213, label %._crit_edge, label %.lr.ph

._crit_edge:                                      ; preds = %.lr.ph, %5
  %23 = and i64 %16, 448
  %24 = getelementptr inbounds nuw i8, ptr %0, i64 48
  store i64 %23, ptr %24, align 8, !tbaa !118
  ret void

.lr.ph:                                           ; preds = %5, %.lr.ph
  %.014 = phi ptr [ %30, %.lr.ph ], [ %20, %5 ]
  %25 = phi i64 [ %29, %.lr.ph ], [ 0, %5 ]
  %26 = load i8, ptr %.014, align 1, !tbaa !15
  %27 = icmp eq i8 %26, 9
  %28 = select i1 %27, i64 4, i64 1
  %29 = add i64 %28, %25
  store i64 %29, ptr %17, align 8, !tbaa !117
  %30 = getelementptr inbounds nuw i8, ptr %.014, i64 1
  %.not12 = icmp eq ptr %30, %22
  br i1 %.not12, label %._crit_edge, label %.lr.ph
}